target datalayout = "e-m:e-p270:32:32-p271:32:32-p272:64:64-i64:64-i128:128-f80:128-n8:16:32:64-S128"
target triple = "x86_64-pc-linux-gnu"

%struct.Intp_Man_t_ = type { ptr, i32, i32, i32, i32, i32, i32, i32, ptr, ptr, ptr, ptr, ptr, ptr, i32, i32, ptr, ptr, ptr, i32, i32, i64, i64, i64 }
%struct.Sto_Man_t_ = type { i32, i32, i32, i32, ptr, ptr, ptr, i32, i32, ptr }

; Function Attrs: nounwind uwtable
define void @Intp_ManResize(ptr noundef %0) #0 {
  %2 = alloca ptr, align 8
  store ptr %0, ptr %2, align 8
  %3 = load ptr, ptr %2, align 8
  %4 = getelementptr inbounds %struct.Intp_Man_t_, ptr %3, i32 0, i32 4
  %5 = load i32, ptr %4, align 4
  %6 = load ptr, ptr %2, align 8
  %7 = getelementptr inbounds %struct.Intp_Man_t_, ptr %6, i32 0, i32 0
  %8 = load ptr, ptr %7, align 8
  %9 = getelementptr inbounds %struct.Sto_Man_t_, ptr %8, i32 0, i32 0
  %10 = load i32, ptr %9, align 8
  %11 = icmp slt i32 %5, %10
  br i1 %11, label %12, label %164

12:                                               ; preds = %1
  %13 = load ptr, ptr %2, align 8
  %14 = getelementptr inbounds %struct.Intp_Man_t_, ptr %13, i32 0, i32 4
  %15 = load i32, ptr %14, align 4
  %16 = icmp eq i32 %15, 0
  br i1 %16, label %17, label %20

17:                                               ; preds = %12
  %18 = load ptr, ptr %2, align 8
  %19 = getelementptr inbounds %struct.Intp_Man_t_, ptr %18, i32 0, i32 4
  store i32 1, ptr %19, align 4
  br label %20

20:                                               ; preds = %17, %12
  br label %21

21:                                               ; preds = %31, %20
  %22 = load ptr, ptr %2, align 8
  %23 = getelementptr inbounds %struct.Intp_Man_t_, ptr %22, i32 0, i32 4
  %24 = load i32, ptr %23, align 4
  %25 = load ptr, ptr %2, align 8
  %26 = getelementptr inbounds %struct.Intp_Man_t_, ptr %25, i32 0, i32 0
  %27 = load ptr, ptr %26, align 8
  %28 = getelementptr inbounds %struct.Sto_Man_t_, ptr %27, i32 0, i32 0
  %29 = load i32, ptr %28, align 8
  %30 = icmp slt i32 %24, %29
  br i1 %30, label %31, label %36

31:                                               ; preds = %21
  %32 = load ptr, ptr %2, align 8
  %33 = getelementptr inbounds %struct.Intp_Man_t_, ptr %32, i32 0, i32 4
  %34 = load i32, ptr %33, align 4
  %35 = mul nsw i32 %34, 2
  store i32 %35, ptr %33, align 4
  br label %21, !llvm.loop !4

36:                                               ; preds = %21
  %37 = load ptr, ptr %2, align 8
  %38 = getelementptr inbounds %struct.Intp_Man_t_, ptr %37, i32 0, i32 8
  %39 = load ptr, ptr %38, align 8
  %40 = icmp ne ptr %39, null
  br i1 %40, label %41, label %51

41:                                               ; preds = %36
  %42 = load ptr, ptr %2, align 8
  %43 = getelementptr inbounds %struct.Intp_Man_t_, ptr %42, i32 0, i32 8
  %44 = load ptr, ptr %43, align 8
  %45 = load ptr, ptr %2, align 8
  %46 = getelementptr inbounds %struct.Intp_Man_t_, ptr %45, i32 0, i32 4
  %47 = load i32, ptr %46, align 4
  %48 = sext i32 %47 to i64
  %49 = mul i64 4, %48
  %50 = call ptr @realloc(ptr noundef %44, i64 noundef %49) #10
  br label %58

51:                                               ; preds = %36
  %52 = load ptr, ptr %2, align 8
  %53 = getelementptr inbounds %struct.Intp_Man_t_, ptr %52, i32 0, i32 4
  %54 = load i32, ptr %53, align 4
  %55 = sext i32 %54 to i64
  %56 = mul i64 4, %55
  %57 = call noalias ptr @malloc(i64 noundef %56) #9
  br label %58

58:                                               ; preds = %51, %41
  %59 = phi ptr [ %50, %41 ], [ %57, %51 ]
  %60 = load ptr, ptr %2, align 8
  %61 = getelementptr inbounds %struct.Intp_Man_t_, ptr %60, i32 0, i32 8
  store ptr %59, ptr %61, align 8
  %62 = load ptr, ptr %2, align 8
  %63 = getelementptr inbounds %struct.Intp_Man_t_, ptr %62, i32 0, i32 9
  %64 = load ptr, ptr %63, align 8
  %65 = icmp ne ptr %64, null
  br i1 %65, label %66, label %76

66:                                               ; preds = %58
  %67 = load ptr, ptr %2, align 8
  %68 = getelementptr inbounds %struct.Intp_Man_t_, ptr %67, i32 0, i32 9
  %69 = load ptr, ptr %68, align 8
  %70 = load ptr, ptr %2, align 8
  %71 = getelementptr inbounds %struct.Intp_Man_t_, ptr %70, i32 0, i32 4
  %72 = load i32, ptr %71, align 4
  %73 = sext i32 %72 to i64
  %74 = mul i64 4, %73
  %75 = call ptr @realloc(ptr noundef %69, i64 noundef %74) #10
  br label %83

76:                                               ; preds = %58
  %77 = load ptr, ptr %2, align 8
  %78 = getelementptr inbounds %struct.Intp_Man_t_, ptr %77, i32 0, i32 4
  %79 = load i32, ptr %78, align 4
  %80 = sext i32 %79 to i64
  %81 = mul i64 4, %80
  %82 = call noalias ptr @malloc(i64 noundef %81) #9
  br label %83

83:                                               ; preds = %76, %66
  %84 = phi ptr [ %75, %66 ], [ %82, %76 ]
  %85 = load ptr, ptr %2, align 8
  %86 = getelementptr inbounds %struct.Intp_Man_t_, ptr %85, i32 0, i32 9
  store ptr %84, ptr %86, align 8
  %87 = load ptr, ptr %2, align 8
  %88 = getelementptr inbounds %struct.Intp_Man_t_, ptr %87, i32 0, i32 10
  %89 = load ptr, ptr %88, align 8
  %90 = icmp ne ptr %89, null
  br i1 %90, label %91, label %101

91:                                               ; preds = %83
  %92 = load ptr, ptr %2, align 8
  %93 = getelementptr inbounds %struct.Intp_Man_t_, ptr %92, i32 0, i32 10
  %94 = load ptr, ptr %93, align 8
  %95 = load ptr, ptr %2, align 8
  %96 = getelementptr inbounds %struct.Intp_Man_t_, ptr %95, i32 0, i32 4
  %97 = load i32, ptr %96, align 4
  %98 = sext i32 %97 to i64
  %99 = mul i64 1, %98
  %100 = call ptr @realloc(ptr noundef %94, i64 noundef %99) #10
  br label %108

101:                                              ; preds = %83
  %102 = load ptr, ptr %2, align 8
  %103 = getelementptr inbounds %struct.Intp_Man_t_, ptr %102, i32 0, i32 4
  %104 = load i32, ptr %103, align 4
  %105 = sext i32 %104 to i64
  %106 = mul i64 1, %105
  %107 = call noalias ptr @malloc(i64 noundef %106) #9
  br label %108

108:                                              ; preds = %101, %91
  %109 = phi ptr [ %100, %91 ], [ %107, %101 ]
  %110 = load ptr, ptr %2, align 8
  %111 = getelementptr inbounds %struct.Intp_Man_t_, ptr %110, i32 0, i32 10
  store ptr %109, ptr %111, align 8
  %112 = load ptr, ptr %2, align 8
  %113 = getelementptr inbounds %struct.Intp_Man_t_, ptr %112, i32 0, i32 11
  %114 = load ptr, ptr %113, align 8
  %115 = icmp ne ptr %114, null
  br i1 %115, label %116, label %126

116:                                              ; preds = %108
  %117 = load ptr, ptr %2, align 8
  %118 = getelementptr inbounds %struct.Intp_Man_t_, ptr %117, i32 0, i32 11
  %119 = load ptr, ptr %118, align 8
  %120 = load ptr, ptr %2, align 8
  %121 = getelementptr inbounds %struct.Intp_Man_t_, ptr %120, i32 0, i32 4
  %122 = load i32, ptr %121, align 4
  %123 = sext i32 %122 to i64
  %124 = mul i64 8, %123
  %125 = call ptr @realloc(ptr noundef %119, i64 noundef %124) #10
  br label %133

126:                                              ; preds = %108
  %127 = load ptr, ptr %2, align 8
  %128 = getelementptr inbounds %struct.Intp_Man_t_, ptr %127, i32 0, i32 4
  %129 = load i32, ptr %128, align 4
  %130 = sext i32 %129 to i64
  %131 = mul i64 8, %130
  %132 = call noalias ptr @malloc(i64 noundef %131) #9
  br label %133

133:                                              ; preds = %126, %116
  %134 = phi ptr [ %125, %116 ], [ %132, %126 ]
  %135 = load ptr, ptr %2, align 8
  %136 = getelementptr inbounds %struct.Intp_Man_t_, ptr %135, i32 0, i32 11
  store ptr %134, ptr %136, align 8
  %137 = load ptr, ptr %2, align 8
  %138 = getelementptr inbounds %struct.Intp_Man_t_, ptr %137, i32 0, i32 12
  %139 = load ptr, ptr %138, align 8
  %140 = icmp ne ptr %139, null
  br i1 %140, label %141, label %152

141:                                              ; preds = %133
  %142 = load ptr, ptr %2, align 8
  %143 = getelementptr inbounds %struct.Intp_Man_t_, ptr %142, i32 0, i32 12
  %144 = load ptr, ptr %143, align 8
  %145 = load ptr, ptr %2, align 8
  %146 = getelementptr inbounds %struct.Intp_Man_t_, ptr %145, i32 0, i32 4
  %147 = load i32, ptr %146, align 4
  %148 = mul nsw i32 %147, 2
  %149 = sext i32 %148 to i64
  %150 = mul i64 8, %149
  %151 = call ptr @realloc(ptr noundef %144, i64 noundef %150) #10
  br label %160

152:                                              ; preds = %133
  %153 = load ptr, ptr %2, align 8
  %154 = getelementptr inbounds %struct.Intp_Man_t_, ptr %153, i32 0, i32 4
  %155 = load i32, ptr %154, align 4
  %156 = mul nsw i32 %155, 2
  %157 = sext i32 %156 to i64
  %158 = mul i64 8, %157
  %159 = call noalias ptr @malloc(i64 noundef %158) #9
  br label %160

160:                                              ; preds = %152, %141
  %161 = phi ptr [ %151, %141 ], [ %159, %152 ]
  %162 = load ptr, ptr %2, align 8
  %163 = getelementptr inbounds %struct.Intp_Man_t_, ptr %162, i32 0, i32 12
  store ptr %161, ptr %163, align 8
  br label %164

164:                                              ; preds = %160, %1
  %165 = load ptr, ptr %2, align 8
  %166 = getelementptr inbounds %struct.Intp_Man_t_, ptr %165, i32 0, i32 9
  %167 = load ptr, ptr %166, align 8
  %168 = load ptr, ptr %2, align 8
  %169 = getelementptr inbounds %struct.Intp_Man_t_, ptr %168, i32 0, i32 0
  %170 = load ptr, ptr %169, align 8
  %171 = getelementptr inbounds %struct.Sto_Man_t_, ptr %170, i32 0, i32 0
  %172 = load i32, ptr %171, align 8
  %173 = sext i32 %172 to i64
  %174 = mul i64 4, %173
  call void @llvm.memset.p0.i64(ptr align 4 %167, i8 -1, i64 %174, i1 false)
  %175 = load ptr, ptr %2, align 8
  %176 = getelementptr inbounds %struct.Intp_Man_t_, ptr %175, i32 0, i32 10
  %177 = load ptr, ptr %176, align 8
  %178 = load ptr, ptr %2, align 8
  %179 = getelementptr inbounds %struct.Intp_Man_t_, ptr %178, i32 0, i32 0
  %180 = load ptr, ptr %179, align 8
  %181 = getelementptr inbounds %struct.Sto_Man_t_, ptr %180, i32 0, i32 0
  %182 = load i32, ptr %181, align 8
  %183 = sext i32 %182 to i64
  %184 = mul i64 1, %183
  call void @llvm.memset.p0.i64(ptr align 1 %177, i8 0, i64 %184, i1 false)
  %185 = load ptr, ptr %2, align 8
  %186 = getelementptr inbounds %struct.Intp_Man_t_, ptr %185, i32 0, i32 11
  %187 = load ptr, ptr %186, align 8
  %188 = load ptr, ptr %2, align 8
  %189 = getelementptr inbounds %struct.Intp_Man_t_, ptr %188, i32 0, i32 0
  %190 = load ptr, ptr %189, align 8
  %191 = getelementptr inbounds %struct.Sto_Man_t_, ptr %190, i32 0, i32 0
  %192 = load i32, ptr %191, align 8
  %193 = sext i32 %192 to i64
  %194 = mul i64 8, %193
  call void @llvm.memset.p0.i64(ptr align 8 %187, i8 0, i64 %194, i1 false)
  %195 = load ptr, ptr %2, align 8
  %196 = getelementptr inbounds %struct.Intp_Man_t_, ptr %195, i32 0, i32 12
  %197 = load ptr, ptr %196, align 8
  %198 = load ptr, ptr %2, align 8
  %199 = getelementptr inbounds %struct.Intp_Man_t_, ptr %198, i32 0, i32 0
  %200 = load ptr, ptr %199, align 8
  %201 = getelementptr inbounds %struct.Sto_Man_t_, ptr %200, i32 0, i32 0
  %202 = load i32, ptr %201, align 8
  %203 = sext i32 %202 to i64
  %204 = mul i64 8, %203
  %205 = mul i64 %204, 2
  call void @llvm.memset.p0.i64(ptr align 8 %197, i8 0, i64 %205, i1 false)
  %206 = load ptr, ptr %2, align 8
  %207 = getelementptr inbounds %struct.Intp_Man_t_, ptr %206, i32 0, i32 5
  %208 = load i32, ptr %207, align 8
  %209 = load ptr, ptr %2, align 8
  %210 = getelementptr inbounds %struct.Intp_Man_t_, ptr %209, i32 0, i32 0
  %211 = load ptr, ptr %210, align 8
  %212 = getelementptr inbounds %struct.Sto_Man_t_, ptr %211, i32 0, i32 2
  %213 = load i32, ptr %212, align 8
  %214 = icmp slt i32 %208, %213
  br i1 %214, label %215, label %265

215:                                              ; preds = %164
  %216 = load ptr, ptr %2, align 8
  %217 = getelementptr inbounds %struct.Intp_Man_t_, ptr %216, i32 0, i32 5
  %218 = load i32, ptr %217, align 8
  %219 = icmp eq i32 %218, 0
  br i1 %219, label %220, label %223

220:                                              ; preds = %215
  %221 = load ptr, ptr %2, align 8
  %222 = getelementptr inbounds %struct.Intp_Man_t_, ptr %221, i32 0, i32 5
  store i32 1, ptr %222, align 8
  br label %223

223:                                              ; preds = %220, %215
  br label %224

224:                                              ; preds = %234, %223
  %225 = load ptr, ptr %2, align 8
  %226 = getelementptr inbounds %struct.Intp_Man_t_, ptr %225, i32 0, i32 5
  %227 = load i32, ptr %226, align 8
  %228 = load ptr, ptr %2, align 8
  %229 = getelementptr inbounds %struct.Intp_Man_t_, ptr %228, i32 0, i32 0
  %230 = load ptr, ptr %229, align 8
  %231 = getelementptr inbounds %struct.Sto_Man_t_, ptr %230, i32 0, i32 2
  %232 = load i32, ptr %231, align 8
  %233 = icmp slt i32 %227, %232
  br i1 %233, label %234, label %239

234:                                              ; preds = %224
  %235 = load ptr, ptr %2, align 8
  %236 = getelementptr inbounds %struct.Intp_Man_t_, ptr %235, i32 0, i32 5
  %237 = load i32, ptr %236, align 8
  %238 = mul nsw i32 %237, 2
  store i32 %238, ptr %236, align 8
  br label %224, !llvm.loop !6

239:                                              ; preds = %224
  %240 = load ptr, ptr %2, align 8
  %241 = getelementptr inbounds %struct.Intp_Man_t_, ptr %240, i32 0, i32 16
  %242 = load ptr, ptr %241, align 8
  %243 = icmp ne ptr %242, null
  br i1 %243, label %244, label %254

244:                                              ; preds = %239
  %245 = load ptr, ptr %2, align 8
  %246 = getelementptr inbounds %struct.Intp_Man_t_, ptr %245, i32 0, i32 16
  %247 = load ptr, ptr %246, align 8
  %248 = load ptr, ptr %2, align 8
  %249 = getelementptr inbounds %struct.Intp_Man_t_, ptr %248, i32 0, i32 5
  %250 = load i32, ptr %249, align 8
  %251 = sext i32 %250 to i64
  %252 = mul i64 4, %251
  %253 = call ptr @realloc(ptr noundef %247, i64 noundef %252) #10
  br label %261

254:                                              ; preds = %239
  %255 = load ptr, ptr %2, align 8
  %256 = getelementptr inbounds %struct.Intp_Man_t_, ptr %255, i32 0, i32 5
  %257 = load i32, ptr %256, align 8
  %258 = sext i32 %257 to i64
  %259 = mul i64 4, %258
  %260 = call noalias ptr @malloc(i64 noundef %259) #9
  br label %261

261:                                              ; preds = %254, %244
  %262 = phi ptr [ %253, %244 ], [ %260, %254 ]
  %263 = load ptr, ptr %2, align 8
  %264 = getelementptr inbounds %struct.Intp_Man_t_, ptr %263, i32 0, i32 16
  store ptr %262, ptr %264, align 8
  br label %265

265:                                              ; preds = %261, %164
  %266 = load ptr, ptr %2, align 8
  %267 = getelementptr inbounds %struct.Intp_Man_t_, ptr %266, i32 0, i32 16
  %268 = load ptr, ptr %267, align 8
  %269 = load ptr, ptr %2, align 8
  %270 = getelementptr inbounds %struct.Intp_Man_t_, ptr %269, i32 0, i32 0
  %271 = load ptr, ptr %270, align 8
  %272 = getelementptr inbounds %struct.Sto_Man_t_, ptr %271, i32 0, i32 2
  %273 = load i32, ptr %272, align 8
  %274 = sext i32 %273 to i64
  %275 = mul i64 4, %274
  call void @llvm.memset.p0.i64(ptr align 4 %268, i8 0, i64 %275, i1 false)
  ret void
}