; Function Attrs: nounwind uwtable
define void @Intp_ManResize(ptr noundef captures(none) %0) local_unnamed_addr #3 {
  %2 = getelementptr inbounds nuw i8, ptr %0, i64 20
  %3 = load i32, ptr %2, align 4
  %4 = load ptr, ptr %0, align 8
  %5 = load i32, ptr %4, align 8
  %6 = icmp slt i32 %3, %5
  br i1 %6, label %7, label %72

7:                                                ; preds = %1
  %8 = icmp eq i32 %3, 0
  br i1 %8, label %9, label %10

9:                                                ; preds = %7
  store i32 1, ptr %2, align 4
  %.pre = load i32, ptr %4, align 8
  br label %10

10:                                               ; preds = %9, %7
  %11 = phi i32 [ %.pre, %9 ], [ %5, %7 ]
  %12 = phi i32 [ 1, %9 ], [ %3, %7 ]
  %13 = icmp slt i32 %12, %11
  br i1 %13, label %.lr.ph, label %._crit_edge

.lr.ph:                                           ; preds = %10, %.lr.ph
  %14 = phi i32 [ %15, %.lr.ph ], [ %12, %10 ]
  %15 = shl nsw i32 %14, 1
  store i32 %15, ptr %2, align 4
  %16 = load i32, ptr %4, align 8
  %17 = icmp slt i32 %15, %16
  br i1 %17, label %.lr.ph, label %._crit_edge, !llvm.loop !4

._crit_edge:                                      ; preds = %.lr.ph, %10
  %.lcssa69 = phi i32 [ %12, %10 ], [ %15, %.lr.ph ]
  %18 = getelementptr inbounds nuw i8, ptr %0, i64 40
  %19 = load ptr, ptr %18, align 8
  %.not = icmp eq ptr %19, null
  %20 = sext i32 %.lcssa69 to i64
  %21 = shl nsw i64 %20, 2
  br i1 %.not, label %24, label %22

22:                                               ; preds = %._crit_edge
  %23 = tail call ptr @realloc(ptr noundef nonnull %19, i64 noundef %21) #15
  br label %26

24:                                               ; preds = %._crit_edge
  %25 = tail call noalias ptr @malloc(i64 noundef %21) #14
  br label %26

26:                                               ; preds = %24, %22
  %27 = phi ptr [ %23, %22 ], [ %25, %24 ]
  store ptr %27, ptr %18, align 8
  %28 = getelementptr inbounds nuw i8, ptr %0, i64 48
  %29 = load ptr, ptr %28, align 8
  %.not64 = icmp eq ptr %29, null
  %30 = load i32, ptr %2, align 4
  %31 = sext i32 %30 to i64
  %32 = shl nsw i64 %31, 2
  br i1 %.not64, label %35, label %33

33:                                               ; preds = %26
  %34 = tail call ptr @realloc(ptr noundef nonnull %29, i64 noundef %32) #15
  br label %37

35:                                               ; preds = %26
  %36 = tail call noalias ptr @malloc(i64 noundef %32) #14
  br label %37

37:                                               ; preds = %35, %33
  %38 = phi ptr [ %34, %33 ], [ %36, %35 ]
  store ptr %38, ptr %28, align 8
  %39 = getelementptr inbounds nuw i8, ptr %0, i64 56
  %40 = load ptr, ptr %39, align 8
  %.not65 = icmp eq ptr %40, null
  %41 = load i32, ptr %2, align 4
  %42 = sext i32 %41 to i64
  br i1 %.not65, label %45, label %43

43:                                               ; preds = %37
  %44 = tail call ptr @realloc(ptr noundef nonnull %40, i64 noundef %42) #15
  br label %47

45:                                               ; preds = %37
  %46 = tail call noalias ptr @malloc(i64 noundef %42) #14
  br label %47

47:                                               ; preds = %45, %43
  %48 = phi ptr [ %44, %43 ], [ %46, %45 ]
  store ptr %48, ptr %39, align 8
  %49 = getelementptr inbounds nuw i8, ptr %0, i64 64
  %50 = load ptr, ptr %49, align 8
  %.not66 = icmp eq ptr %50, null
  %51 = load i32, ptr %2, align 4
  %52 = sext i32 %51 to i64
  %53 = shl nsw i64 %52, 3
  br i1 %.not66, label %56, label %54

54:                                               ; preds = %47
  %55 = tail call ptr @realloc(ptr noundef nonnull %50, i64 noundef %53) #15
  br label %58

56:                                               ; preds = %47
  %57 = tail call noalias ptr @malloc(i64 noundef %53) #14
  br label %58

58:                                               ; preds = %56, %54
  %59 = phi ptr [ %55, %54 ], [ %57, %56 ]
  store ptr %59, ptr %49, align 8
  %60 = getelementptr inbounds nuw i8, ptr %0, i64 72
  %61 = load ptr, ptr %60, align 8
  %.not67 = icmp eq ptr %61, null
  %62 = load i32, ptr %2, align 4
  %63 = shl nsw i32 %62, 1
  %64 = sext i32 %63 to i64
  %65 = shl nsw i64 %64, 3
  br i1 %.not67, label %68, label %66

66:                                               ; preds = %58
  %67 = tail call ptr @realloc(ptr noundef nonnull %61, i64 noundef %65) #15
  br label %70

68:                                               ; preds = %58
  %69 = tail call noalias ptr @malloc(i64 noundef %65) #14
  br label %70

70:                                               ; preds = %68, %66
  %71 = phi ptr [ %67, %66 ], [ %69, %68 ]
  store ptr %71, ptr %60, align 8
  %.pre76 = load ptr, ptr %0, align 8
  %.pre77 = load i32, ptr %.pre76, align 8
  br label %72

72:                                               ; preds = %70, %1
  %73 = phi i32 [ %.pre77, %70 ], [ %5, %1 ]
  %74 = getelementptr inbounds nuw i8, ptr %0, i64 48
  %75 = load ptr, ptr %74, align 8
  %76 = sext i32 %73 to i64
  %77 = shl nsw i64 %76, 2
  tail call void @llvm.memset.p0.i64(ptr align 4 %75, i8 -1, i64 %77, i1 false)
  %78 = getelementptr inbounds nuw i8, ptr %0, i64 56
  %79 = load ptr, ptr %78, align 8
  %80 = load ptr, ptr %0, align 8
  %81 = load i32, ptr %80, align 8
  %82 = sext i32 %81 to i64
  tail call void @llvm.memset.p0.i64(ptr align 1 %79, i8 0, i64 %82, i1 false)
  %83 = getelementptr inbounds nuw i8, ptr %0, i64 64
  %84 = load ptr, ptr %83, align 8
  %85 = load ptr, ptr %0, align 8
  %86 = load i32, ptr %85, align 8
  %87 = sext i32 %86 to i64
  %88 = shl nsw i64 %87, 3
  tail call void @llvm.memset.p0.i64(ptr align 8 %84, i8 0, i64 %88, i1 false)
  %89 = getelementptr inbounds nuw i8, ptr %0, i64 72
  %90 = load ptr, ptr %89, align 8
  %91 = load ptr, ptr %0, align 8
  %92 = load i32, ptr %91, align 8
  %93 = sext i32 %92 to i64
  %94 = shl nsw i64 %93, 4
  tail call void @llvm.memset.p0.i64(ptr align 8 %90, i8 0, i64 %94, i1 false)
  %95 = getelementptr inbounds nuw i8, ptr %0, i64 24
  %96 = load i32, ptr %95, align 8
  %97 = load ptr, ptr %0, align 8
  %98 = getelementptr inbounds nuw i8, ptr %97, i64 8
  %99 = load i32, ptr %98, align 8
  %100 = icmp slt i32 %96, %99
  br i1 %100, label %101, label %._crit_edge79

._crit_edge79:                                    ; preds = %72
  %.phi.trans.insert = getelementptr inbounds nuw i8, ptr %0, i64 96
  %.pre80 = load ptr, ptr %.phi.trans.insert, align 8
  br label %122

101:                                              ; preds = %72
  %102 = icmp eq i32 %96, 0
  br i1 %102, label %103, label %104

103:                                              ; preds = %101
  store i32 1, ptr %95, align 8
  %.pre78 = load i32, ptr %98, align 8
  br label %104

104:                                              ; preds = %103, %101
  %105 = phi i32 [ %.pre78, %103 ], [ %99, %101 ]
  %106 = phi i32 [ 1, %103 ], [ %96, %101 ]
  %107 = icmp slt i32 %106, %105
  br i1 %107, label %.lr.ph71, label %._crit_edge72

.lr.ph71:                                         ; preds = %104, %.lr.ph71
  %108 = phi i32 [ %109, %.lr.ph71 ], [ %106, %104 ]
  %109 = shl nsw i32 %108, 1
  store i32 %109, ptr %95, align 8
  %110 = load i32, ptr %98, align 8
  %111 = icmp slt i32 %109, %110
  br i1 %111, label %.lr.ph71, label %._crit_edge72, !llvm.loop !6

._crit_edge72:                                    ; preds = %.lr.ph71, %104
  %.lcssa = phi i32 [ %106, %104 ], [ %109, %.lr.ph71 ]
  %112 = getelementptr inbounds nuw i8, ptr %0, i64 96
  %113 = load ptr, ptr %112, align 8
  %.not68 = icmp eq ptr %113, null
  %114 = sext i32 %.lcssa to i64
  %115 = shl nsw i64 %114, 2
  br i1 %.not68, label %118, label %116

116:                                              ; preds = %._crit_edge72
  %117 = tail call ptr @realloc(ptr noundef nonnull %113, i64 noundef %115) #15
  %.pre81.pre = load ptr, ptr %0, align 8
  br label %120

118:                                              ; preds = %._crit_edge72
  %119 = tail call noalias ptr @malloc(i64 noundef %115) #14
  br label %120

120:                                              ; preds = %118, %116
  %.pre81 = phi ptr [ %.pre81.pre, %116 ], [ %97, %118 ]
  %121 = phi ptr [ %117, %116 ], [ %119, %118 ]
  store ptr %121, ptr %112, align 8
  %.phi.trans.insert82 = getelementptr inbounds nuw i8, ptr %.pre81, i64 8
  %.pre83 = load i32, ptr %.phi.trans.insert82, align 8
  br label %122

122:                                              ; preds = %._crit_edge79, %120
  %123 = phi i32 [ %99, %._crit_edge79 ], [ %.pre83, %120 ]
  %124 = phi ptr [ %.pre80, %._crit_edge79 ], [ %121, %120 ]
  %125 = sext i32 %123 to i64
  %126 = shl nsw i64 %125, 2
  tail call void @llvm.memset.p0.i64(ptr align 4 %124, i8 0, i64 %126, i1 false)
  ret void
}